target datalayout = "e-m:e-p270:32:32-p271:32:32-p272:64:64-i64:64-i128:128-f80:128-n8:16:32:64-S128"
target triple = "x86_64-pc-linux-gnu"

%struct.pxr_nc_1_0_XYZ = type { float, float, float }
%struct.pxr_nc_1_0_RGB = type { float, float, float }
%struct.pxr_nc_1_0_Yxy = type { float, float, float }

; Function Attrs: nounwind uwtable
define internal float @sign_of(float noundef %0) #0 {
  %2 = alloca float, align 4
  store float %0, ptr %2, align 4
  %3 = load float, ptr %2, align 4
  %4 = fcmp ogt float %3, 0.000000e+00
  br i1 %4, label %5, label %6

5:                                                ; preds = %1
  br label %10

6:                                                ; preds = %1
  %7 = load float, ptr %2, align 4
  %8 = fcmp olt float %7, 0.000000e+00
  %9 = select i1 %8, float -1.000000e+00, float 0.000000e+00
  br label %10

10:                                               ; preds = %6, %5
  %11 = phi float [ 1.000000e+00, %5 ], [ %9, %6 ]
  ret float %11
}

; Function Attrs: nounwind uwtable
define { <2 x float>, float } @NcNormalizeYxy(<2 x float> %0, float %1) #6 {
  %3 = alloca %struct.pxr_nc_1_0_Yxy, align 4
  %4 = alloca %struct.pxr_nc_1_0_Yxy, align 4
  %5 = alloca { <2 x float>, float }, align 4
  %6 = alloca { <2 x float>, float }, align 8
  %7 = getelementptr inbounds nuw { <2 x float>, float }, ptr %5, i32 0, i32 0
  store <2 x float> %0, ptr %7, align 4
  %8 = getelementptr inbounds nuw { <2 x float>, float }, ptr %5, i32 0, i32 1
  store float %1, ptr %8, align 4
  call void @llvm.memcpy.p0.p0.i64(ptr align 4 %4, ptr align 4 %5, i64 12, i1 false)
  %9 = getelementptr inbounds nuw %struct.pxr_nc_1_0_Yxy, ptr %3, i32 0, i32 0
  %10 = getelementptr inbounds nuw %struct.pxr_nc_1_0_Yxy, ptr %4, i32 0, i32 0
  %11 = load float, ptr %10, align 4
  store float %11, ptr %9, align 4
  %12 = getelementptr inbounds nuw %struct.pxr_nc_1_0_Yxy, ptr %3, i32 0, i32 1
  %13 = getelementptr inbounds nuw %struct.pxr_nc_1_0_Yxy, ptr %4, i32 0, i32 0
  %14 = load float, ptr %13, align 4
  %15 = getelementptr inbounds nuw %struct.pxr_nc_1_0_Yxy, ptr %4, i32 0, i32 1
  %16 = load float, ptr %15, align 4
  %17 = fmul float %14, %16
  %18 = getelementptr inbounds nuw %struct.pxr_nc_1_0_Yxy, ptr %4, i32 0, i32 2
  %19 = load float, ptr %18, align 4
  %20 = fdiv float %17, %19
  store float %20, ptr %12, align 4
  %21 = getelementptr inbounds nuw %struct.pxr_nc_1_0_Yxy, ptr %3, i32 0, i32 2
  %22 = getelementptr inbounds nuw %struct.pxr_nc_1_0_Yxy, ptr %4, i32 0, i32 0
  %23 = load float, ptr %22, align 4
  %24 = getelementptr inbounds nuw %struct.pxr_nc_1_0_Yxy, ptr %4, i32 0, i32 1
  %25 = load float, ptr %24, align 4
  %26 = fsub float 1.000000e+00, %25
  %27 = getelementptr inbounds nuw %struct.pxr_nc_1_0_Yxy, ptr %4, i32 0, i32 2
  %28 = load float, ptr %27, align 4
  %29 = fsub float %26, %28
  %30 = fmul float %23, %29
  %31 = getelementptr inbounds nuw %struct.pxr_nc_1_0_Yxy, ptr %4, i32 0, i32 2
  %32 = load float, ptr %31, align 4
  %33 = fdiv float %30, %32
  store float %33, ptr %21, align 4
  call void @llvm.memcpy.p0.p0.i64(ptr align 8 %6, ptr align 4 %3, i64 12, i1 false)
  %34 = load { <2 x float>, float }, ptr %6, align 8
  ret { <2 x float>, float } %34
}

; Function Attrs: nounwind uwtable
define { <2 x float>, float } @pxr_nc_1_0_YxyToRGB(ptr noundef %0, <2 x float> %1, float %2) #6 {
  %4 = alloca %struct.pxr_nc_1_0_RGB, align 4
  %5 = alloca %struct.pxr_nc_1_0_Yxy, align 4
  %6 = alloca { <2 x float>, float }, align 4
  %7 = alloca ptr, align 8
  %8 = alloca %struct.pxr_nc_1_0_Yxy, align 4
  %9 = alloca { <2 x float>, float }, align 4
  %10 = alloca { <2 x float>, float }, align 8
  %11 = alloca %struct.pxr_nc_1_0_RGB, align 4
  %12 = alloca %struct.pxr_nc_1_0_XYZ, align 4
  %13 = alloca { <2 x float>, float }, align 4
  %14 = alloca { <2 x float>, float }, align 8
  %15 = alloca %struct.pxr_nc_1_0_RGB, align 4
  %16 = alloca float, align 4
  %17 = alloca { <2 x float>, float }, align 8
  %18 = getelementptr inbounds nuw { <2 x float>, float }, ptr %6, i32 0, i32 0
  store <2 x float> %1, ptr %18, align 4
  %19 = getelementptr inbounds nuw { <2 x float>, float }, ptr %6, i32 0, i32 1
  store float %2, ptr %19, align 4
  call void @llvm.memcpy.p0.p0.i64(ptr align 4 %5, ptr align 4 %6, i64 12, i1 false)
  store ptr %0, ptr %7, align 8
  call void @llvm.memcpy.p0.p0.i64(ptr align 4 %9, ptr align 4 %5, i64 12, i1 false)
  %20 = getelementptr inbounds nuw { <2 x float>, float }, ptr %9, i32 0, i32 0
  %21 = load <2 x float>, ptr %20, align 4
  %22 = getelementptr inbounds nuw { <2 x float>, float }, ptr %9, i32 0, i32 1
  %23 = load float, ptr %22, align 4
  %24 = call { <2 x float>, float } @NcNormalizeYxy(<2 x float> %21, float %23)
  store { <2 x float>, float } %24, ptr %10, align 8
  call void @llvm.memcpy.p0.p0.i64(ptr align 4 %8, ptr align 8 %10, i64 12, i1 false)
  %25 = load ptr, ptr %7, align 8
  %26 = getelementptr inbounds nuw %struct.pxr_nc_1_0_XYZ, ptr %12, i32 0, i32 0
  %27 = getelementptr inbounds nuw %struct.pxr_nc_1_0_Yxy, ptr %8, i32 0, i32 1
  %28 = load float, ptr %27, align 4
  store float %28, ptr %26, align 4
  %29 = getelementptr inbounds nuw %struct.pxr_nc_1_0_XYZ, ptr %12, i32 0, i32 1
  %30 = getelementptr inbounds nuw %struct.pxr_nc_1_0_Yxy, ptr %8, i32 0, i32 0
  %31 = load float, ptr %30, align 4
  store float %31, ptr %29, align 4
  %32 = getelementptr inbounds nuw %struct.pxr_nc_1_0_XYZ, ptr %12, i32 0, i32 2
  %33 = getelementptr inbounds nuw %struct.pxr_nc_1_0_Yxy, ptr %8, i32 0, i32 2
  %34 = load float, ptr %33, align 4
  store float %34, ptr %32, align 4
  call void @llvm.memcpy.p0.p0.i64(ptr align 4 %13, ptr align 4 %12, i64 12, i1 false)
  %35 = getelementptr inbounds nuw { <2 x float>, float }, ptr %13, i32 0, i32 0
  %36 = load <2 x float>, ptr %35, align 4
  %37 = getelementptr inbounds nuw { <2 x float>, float }, ptr %13, i32 0, i32 1
  %38 = load float, ptr %37, align 4
  %39 = call { <2 x float>, float } @pxr_nc_1_0_XYZToRGB(ptr noundef %25, <2 x float> %36, float %38)
  store { <2 x float>, float } %39, ptr %14, align 8
  call void @llvm.memcpy.p0.p0.i64(ptr align 4 %11, ptr align 8 %14, i64 12, i1 false)
  %40 = getelementptr inbounds nuw %struct.pxr_nc_1_0_RGB, ptr %15, i32 0, i32 0
  %41 = getelementptr inbounds nuw %struct.pxr_nc_1_0_RGB, ptr %11, i32 0, i32 0
  %42 = load float, ptr %41, align 4
  %43 = call float @llvm.fabs.f32(float %42)
  store float %43, ptr %40, align 4
  %44 = getelementptr inbounds nuw %struct.pxr_nc_1_0_RGB, ptr %15, i32 0, i32 1
  %45 = getelementptr inbounds nuw %struct.pxr_nc_1_0_RGB, ptr %11, i32 0, i32 1
  %46 = load float, ptr %45, align 4
  %47 = call float @llvm.fabs.f32(float %46)
  store float %47, ptr %44, align 4
  %48 = getelementptr inbounds nuw %struct.pxr_nc_1_0_RGB, ptr %15, i32 0, i32 2
  %49 = getelementptr inbounds nuw %struct.pxr_nc_1_0_RGB, ptr %11, i32 0, i32 2
  %50 = load float, ptr %49, align 4
  %51 = call float @llvm.fabs.f32(float %50)
  store float %51, ptr %48, align 4
  %52 = getelementptr inbounds nuw %struct.pxr_nc_1_0_RGB, ptr %15, i32 0, i32 0
  %53 = load float, ptr %52, align 4
  %54 = getelementptr inbounds nuw %struct.pxr_nc_1_0_RGB, ptr %15, i32 0, i32 1
  %55 = load float, ptr %54, align 4
  %56 = fcmp ogt float %53, %55
  br i1 %56, label %57, label %60

57:                                               ; preds = %3
  %58 = getelementptr inbounds nuw %struct.pxr_nc_1_0_RGB, ptr %15, i32 0, i32 0
  %59 = load float, ptr %58, align 4
  br label %63

60:                                               ; preds = %3
  %61 = getelementptr inbounds nuw %struct.pxr_nc_1_0_RGB, ptr %15, i32 0, i32 1
  %62 = load float, ptr %61, align 4
  br label %63

63:                                               ; preds = %60, %57
  %64 = phi float [ %59, %57 ], [ %62, %60 ]
  store float %64, ptr %16, align 4
  %65 = load float, ptr %16, align 4
  %66 = getelementptr inbounds nuw %struct.pxr_nc_1_0_RGB, ptr %15, i32 0, i32 2
  %67 = load float, ptr %66, align 4
  %68 = fcmp ogt float %65, %67
  br i1 %68, label %69, label %71

69:                                               ; preds = %63
  %70 = load float, ptr %16, align 4
  br label %74

71:                                               ; preds = %63
  %72 = getelementptr inbounds nuw %struct.pxr_nc_1_0_RGB, ptr %15, i32 0, i32 2
  %73 = load float, ptr %72, align 4
  br label %74

74:                                               ; preds = %71, %69
  %75 = phi float [ %70, %69 ], [ %73, %71 ]
  store float %75, ptr %16, align 4
  %76 = getelementptr inbounds nuw %struct.pxr_nc_1_0_RGB, ptr %4, i32 0, i32 0
  %77 = getelementptr inbounds nuw %struct.pxr_nc_1_0_RGB, ptr %11, i32 0, i32 0
  %78 = load float, ptr %77, align 4
  %79 = call float @sign_of(float noundef %78)
  %80 = getelementptr inbounds nuw %struct.pxr_nc_1_0_RGB, ptr %11, i32 0, i32 0
  %81 = load float, ptr %80, align 4
  %82 = fmul float %79, %81
  %83 = load float, ptr %16, align 4
  %84 = fdiv float %82, %83
  store float %84, ptr %76, align 4
  %85 = getelementptr inbounds nuw %struct.pxr_nc_1_0_RGB, ptr %4, i32 0, i32 1
  %86 = getelementptr inbounds nuw %struct.pxr_nc_1_0_RGB, ptr %11, i32 0, i32 1
  %87 = load float, ptr %86, align 4
  %88 = call float @sign_of(float noundef %87)
  %89 = getelementptr inbounds nuw %struct.pxr_nc_1_0_RGB, ptr %11, i32 0, i32 1
  %90 = load float, ptr %89, align 4
  %91 = fmul float %88, %90
  %92 = load float, ptr %16, align 4
  %93 = fdiv float %91, %92
  store float %93, ptr %85, align 4
  %94 = getelementptr inbounds nuw %struct.pxr_nc_1_0_RGB, ptr %4, i32 0, i32 2
  %95 = getelementptr inbounds nuw %struct.pxr_nc_1_0_RGB, ptr %11, i32 0, i32 2
  %96 = load float, ptr %95, align 4
  %97 = call float @sign_of(float noundef %96)
  %98 = getelementptr inbounds nuw %struct.pxr_nc_1_0_RGB, ptr %11, i32 0, i32 2
  %99 = load float, ptr %98, align 4
  %100 = fmul float %97, %99
  %101 = load float, ptr %16, align 4
  %102 = fdiv float %100, %101
  store float %102, ptr %94, align 4
  call void @llvm.memcpy.p0.p0.i64(ptr align 8 %17, ptr align 4 %4, i64 12, i1 false)
  %103 = load { <2 x float>, float }, ptr %17, align 8
  ret { <2 x float>, float } %103
}