; Function Attrs: mustprogress nofree nounwind willreturn memory(write, argmem: readwrite) uwtable
define { <2 x float>, float } @pxr_nc_1_0_YxyToRGB(ptr noundef %0, <2 x float> %1, float %2) local_unnamed_addr #12 {
  %.sroa.03.0.vec.extract.i = extractelement <2 x float> %1, i64 0
  %.sroa.03.4.vec.extract.i = extractelement <2 x float> %1, i64 1
  %4 = fmul float %.sroa.03.0.vec.extract.i, %.sroa.03.4.vec.extract.i
  %5 = fdiv float %4, %2
  %.sroa.012.4.vec.insert.i = insertelement <2 x float> %1, float %5, i64 1
  %6 = fsub float 1.000000e+00, %.sroa.03.4.vec.extract.i
  %7 = fsub float %6, %2
  %8 = fmul float %.sroa.03.0.vec.extract.i, %7
  %9 = fdiv float %8, %2
  %.sroa.013.4.vec.insert = shufflevector <2 x float> %.sroa.012.4.vec.insert.i, <2 x float> poison, <2 x i32> <i32 1, i32 0>
  %10 = tail call { <2 x float>, float } @pxr_nc_1_0_XYZToRGB(ptr noundef %0, <2 x float> %.sroa.013.4.vec.insert, float %9)
  %.fca.0.extract = extractvalue { <2 x float>, float } %10, 0
  %.fca.1.extract = extractvalue { <2 x float>, float } %10, 1
  %.sroa.016.0.vec.extract = extractelement <2 x float> %.fca.0.extract, i64 0
  %11 = tail call float @llvm.fabs.f32(float %.sroa.016.0.vec.extract)
  %.sroa.016.4.vec.extract = extractelement <2 x float> %.fca.0.extract, i64 1
  %12 = tail call float @llvm.fabs.f32(float %.sroa.016.4.vec.extract)
  %13 = tail call float @llvm.fabs.f32(float %.fca.1.extract)
  %14 = fcmp ogt float %11, %12
  %15 = select i1 %14, float %11, float %12
  %16 = fcmp ogt float %15, %13
  %17 = select i1 %16, float %15, float %13
  %18 = fcmp ogt float %.sroa.016.0.vec.extract, 0.000000e+00
  %19 = fcmp olt float %.sroa.016.0.vec.extract, 0.000000e+00
  %20 = select i1 %19, float -1.000000e+00, float 0.000000e+00
  %21 = select i1 %18, float 1.000000e+00, float %20
  %22 = fmul float %.sroa.016.0.vec.extract, %21
  %23 = fdiv float %22, %17
  %.sroa.040.0.vec.insert = insertelement <2 x float> poison, float %23, i64 0
  %24 = fcmp ogt float %.sroa.016.4.vec.extract, 0.000000e+00
  %25 = fcmp olt float %.sroa.016.4.vec.extract, 0.000000e+00
  %26 = select i1 %25, float -1.000000e+00, float 0.000000e+00
  %27 = select i1 %24, float 1.000000e+00, float %26
  %28 = fmul float %.sroa.016.4.vec.extract, %27
  %29 = fdiv float %28, %17
  %.sroa.040.4.vec.insert = insertelement <2 x float> %.sroa.040.0.vec.insert, float %29, i64 1
  %30 = fcmp ogt float %.fca.1.extract, 0.000000e+00
  %31 = fcmp olt float %.fca.1.extract, 0.000000e+00
  %32 = select i1 %31, float -1.000000e+00, float 0.000000e+00
  %33 = select i1 %30, float 1.000000e+00, float %32
  %34 = fmul float %.fca.1.extract, %33
  %35 = fdiv float %34, %17
  %.fca.0.insert = insertvalue { <2 x float>, float } poison, <2 x float> %.sroa.040.4.vec.insert, 0
  %.fca.1.insert = insertvalue { <2 x float>, float } %.fca.0.insert, float %35, 1
  ret { <2 x float>, float } %.fca.1.insert
}